; ModuleID = '24/937.c'
source_filename = "24/937.c"
target datalayout = "e-m:e-p270:32:32-p271:32:32-p272:64:64-i64:64-f80:128-n8:16:32:64-S128"
target triple = "x86_64-pc-linux-gnu"

@.str = private unnamed_addr constant [4 x i8] c"%s\0A\00", align 1
@.str.1 = private unnamed_addr constant [3 x i8] c"%s\00", align 1

; Function Attrs: noinline nounwind uwtable
define dso_local i32 @main() #0 {
  %1 = alloca i32, align 4
  %2 = alloca [10000 x i8], align 16
  %3 = alloca [50 x [50 x i8]], align 16
  %4 = alloca [50 x i8], align 16
  %5 = alloca [50 x i8], align 16
  %6 = alloca i32, align 4
  %7 = alloca i32, align 4
  %8 = alloca i32, align 4
  %9 = alloca i32, align 4
  %10 = alloca [51 x i32], align 16
  %11 = alloca i32, align 4
  %12 = alloca i32, align 4
  store i32 0, i32* %1, align 4
  store i32 0, i32* %9, align 4
  store i32 0, i32* %11, align 4
  store i32 100, i32* %12, align 4
  %13 = getelementptr inbounds [10000 x i8], [10000 x i8]* %2, i64 0, i64 0
  %14 = call i32 (i8*, ...) bitcast (i32 (...)* @gets to i32 (i8*, ...)*)(i8* %13)
  %15 = getelementptr inbounds [10000 x i8], [10000 x i8]* %2, i64 0, i64 0
  %16 = call i64 @strlen(i8* %15) #4
  %17 = trunc i64 %16 to i32
  store i32 %17, i32* %6, align 4
  store i32 0, i32* %8, align 4
  store i32 0, i32* %7, align 4
  br label %18

18:                                               ; preds = %61, %0
  %19 = load i32, i32* %7, align 4
  %20 = load i32, i32* %6, align 4
  %21 = icmp slt i32 %19, %20
  br i1 %21, label %22, label %64

22:                                               ; preds = %18
  %23 = load i32, i32* %7, align 4
  %24 = sext i32 %23 to i64
  %25 = getelementptr inbounds [10000 x i8], [10000 x i8]* %2, i64 0, i64 %24
  %26 = load i8, i8* %25, align 1
  %27 = sext i8 %26 to i32
  %28 = icmp ne i32 %27, 32
  br i1 %28, label %29, label %49

29:                                               ; preds = %22
  %30 = load i32, i32* %7, align 4
  %31 = sext i32 %30 to i64
  %32 = getelementptr inbounds [10000 x i8], [10000 x i8]* %2, i64 0, i64 %31
  %33 = load i8, i8* %32, align 1
  %34 = sext i8 %33 to i32
  %35 = icmp ne i32 %34, 46
  br i1 %35, label %36, label %49

36:                                               ; preds = %29
  %37 = load i32, i32* %7, align 4
  %38 = sext i32 %37 to i64
  %39 = getelementptr inbounds [10000 x i8], [10000 x i8]* %2, i64 0, i64 %38
  %40 = load i8, i8* %39, align 1
  %41 = load i32, i32* %8, align 4
  %42 = sext i32 %41 to i64
  %43 = getelementptr inbounds [50 x [50 x i8]], [50 x [50 x i8]]* %3, i64 0, i64 %42
  %44 = load i32, i32* %9, align 4
  %45 = sext i32 %44 to i64
  %46 = getelementptr inbounds [50 x i8], [50 x i8]* %43, i64 0, i64 %45
  store i8 %40, i8* %46, align 1
  %47 = load i32, i32* %9, align 4
  %48 = add nsw i32 %47, 1
  store i32 %48, i32* %9, align 4
  br label %60

49:                                               ; preds = %29, %22
  %50 = load i32, i32* %7, align 4
  %51 = sext i32 %50 to i64
  %52 = getelementptr inbounds [10000 x i8], [10000 x i8]* %2, i64 0, i64 %51
  %53 = load i8, i8* %52, align 1
  %54 = sext i8 %53 to i32
  %55 = icmp eq i32 %54, 32
  br i1 %55, label %56, label %59

56:                                               ; preds = %49
  store i32 0, i32* %9, align 4
  %57 = load i32, i32* %8, align 4
  %58 = add nsw i32 %57, 1
  store i32 %58, i32* %8, align 4
  br label %59

59:                                               ; preds = %56, %49
  br label %60

60:                                               ; preds = %59, %36
  br label %61

61:                                               ; preds = %60
  %62 = load i32, i32* %7, align 4
  %63 = add nsw i32 %62, 1
  store i32 %63, i32* %7, align 4
  br label %18

64:                                               ; preds = %18
  br label %65

65:                                               ; preds = %113, %64
  %66 = load i32, i32* %8, align 4
  %67 = icmp sge i32 %66, 0
  br i1 %67, label %68, label %116

68:                                               ; preds = %65
  %69 = load i32, i32* %8, align 4
  %70 = sext i32 %69 to i64
  %71 = getelementptr inbounds [50 x [50 x i8]], [50 x [50 x i8]]* %3, i64 0, i64 %70
  %72 = getelementptr inbounds [50 x i8], [50 x i8]* %71, i64 0, i64 0
  %73 = call i64 @strlen(i8* %72) #4
  %74 = trunc i64 %73 to i32
  %75 = load i32, i32* %8, align 4
  %76 = sext i32 %75 to i64
  %77 = getelementptr inbounds [51 x i32], [51 x i32]* %10, i64 0, i64 %76
  store i32 %74, i32* %77, align 4
  %78 = load i32, i32* %8, align 4
  %79 = sext i32 %78 to i64
  %80 = getelementptr inbounds [51 x i32], [51 x i32]* %10, i64 0, i64 %79
  %81 = load i32, i32* %80, align 4
  %82 = load i32, i32* %12, align 4
  %83 = icmp sle i32 %81, %82
  br i1 %83, label %84, label %95

84:                                               ; preds = %68
  %85 = getelementptr inbounds [50 x i8], [50 x i8]* %5, i64 0, i64 0
  %86 = load i32, i32* %8, align 4
  %87 = sext i32 %86 to i64
  %88 = getelementptr inbounds [50 x [50 x i8]], [50 x [50 x i8]]* %3, i64 0, i64 %87
  %89 = getelementptr inbounds [50 x i8], [50 x i8]* %88, i64 0, i64 0
  %90 = call i8* @strcpy(i8* %85, i8* %89) #5
  %91 = load i32, i32* %8, align 4
  %92 = sext i32 %91 to i64
  %93 = getelementptr inbounds [51 x i32], [51 x i32]* %10, i64 0, i64 %92
  %94 = load i32, i32* %93, align 4
  store i32 %94, i32* %12, align 4
  br label %95

95:                                               ; preds = %84, %68
  %96 = load i32, i32* %8, align 4
  %97 = sext i32 %96 to i64
  %98 = getelementptr inbounds [51 x i32], [51 x i32]* %10, i64 0, i64 %97
  %99 = load i32, i32* %98, align 4
  %100 = load i32, i32* %11, align 4
  %101 = icmp sge i32 %99, %100
  br i1 %101, label %102, label %113

102:                                              ; preds = %95
  %103 = getelementptr inbounds [50 x i8], [50 x i8]* %4, i64 0, i64 0
  %104 = load i32, i32* %8, align 4
  %105 = sext i32 %104 to i64
  %106 = getelementptr inbounds [50 x [50 x i8]], [50 x [50 x i8]]* %3, i64 0, i64 %105
  %107 = getelementptr inbounds [50 x i8], [50 x i8]* %106, i64 0, i64 0
  %108 = call i8* @strcpy(i8* %103, i8* %107) #5
  %109 = load i32, i32* %8, align 4
  %110 = sext i32 %109 to i64
  %111 = getelementptr inbounds [51 x i32], [51 x i32]* %10, i64 0, i64 %110
  %112 = load i32, i32* %111, align 4
  store i32 %112, i32* %11, align 4
  br label %113

113:                                              ; preds = %102, %95
  %114 = load i32, i32* %8, align 4
  %115 = add nsw i32 %114, -1
  store i32 %115, i32* %8, align 4
  br label %65

116:                                              ; preds = %65
  %117 = getelementptr inbounds [50 x i8], [50 x i8]* %4, i64 0, i64 0
  %118 = call i32 (i8*, ...) @printf(i8* getelementptr inbounds ([4 x i8], [4 x i8]* @.str, i64 0, i64 0), i8* %117)
  %119 = getelementptr inbounds [50 x i8], [50 x i8]* %5, i64 0, i64 0
  %120 = call i32 (i8*, ...) @printf(i8* getelementptr inbounds ([3 x i8], [3 x i8]* @.str.1, i64 0, i64 0), i8* %119)
  ret i32 0
}

declare dso_local i32 @gets(...) #1

; Function Attrs: nounwind readonly
declare dso_local i64 @strlen(i8*) #2

; Function Attrs: nounwind
declare dso_local i8* @strcpy(i8*, i8*) #3

declare dso_local i32 @printf(i8*, ...) #1


!llvm.module.flags = !{!0}
!llvm.ident = !{!1}

!0 = !{i32 1, !"wchar_size", i32 4}
!1 = !{!"clang version 10.0.0-4ubuntu1 "}
